target datalayout = "e-m:e-p270:32:32-p271:32:32-p272:64:64-i64:64-i128:128-f80:128-n8:16:32:64-S128"
target triple = "x86_64-pc-linux-gnu"

%struct.atm_phdr = type { i32, i8, i8, i8, i16, i16, i8, i16, i16, i16, i16, i32 }
%struct.snoop_atm_hdr = type { i8, i8, i16 }

; Function Attrs: inlinehint nounwind null_pointer_is_valid sspstrong uwtable
define internal zeroext i16 @pntoh16(ptr noundef %0) #7 {
  %2 = alloca ptr, align 8
  store ptr %0, ptr %2, align 8
  %3 = load ptr, ptr %2, align 8
  %4 = getelementptr i8, ptr %3, i64 0
  %5 = load i8, ptr %4, align 1
  %6 = zext i8 %5 to i16
  %7 = zext i16 %6 to i32
  %8 = shl i32 %7, 8
  %9 = load ptr, ptr %2, align 8
  %10 = getelementptr i8, ptr %9, i64 1
  %11 = load i8, ptr %10, align 1
  %12 = zext i8 %11 to i16
  %13 = zext i16 %12 to i32
  %14 = shl i32 %13, 0
  %15 = or i32 %8, %14
  %16 = trunc i32 %15 to i16
  ret i16 %16
}

; Function Attrs: null_pointer_is_valid sspstrong uwtable
define internal zeroext i1 @snoop_read_atm_pseudoheader(ptr noundef %0, ptr noundef %1, ptr noundef %2, ptr noundef %3) #0 {
  %5 = alloca i1, align 1
  %6 = alloca ptr, align 8
  %7 = alloca ptr, align 8
  %8 = alloca ptr, align 8
  %9 = alloca ptr, align 8
  %10 = alloca %struct.snoop_atm_hdr, align 2
  %11 = alloca i8, align 1
  %12 = alloca i16, align 2
  %13 = alloca i32, align 4
  store ptr %0, ptr %6, align 8
  store ptr %1, ptr %7, align 8
  store ptr %2, ptr %8, align 8
  store ptr %3, ptr %9, align 8
  call void @llvm.lifetime.start.p0(i64 4, ptr %10) #12
  call void @llvm.lifetime.start.p0(i64 1, ptr %11) #12
  call void @llvm.lifetime.start.p0(i64 2, ptr %12) #12
  %14 = load ptr, ptr %6, align 8
  %15 = load ptr, ptr %8, align 8
  %16 = load ptr, ptr %9, align 8
  %17 = call zeroext i1 @wtap_read_bytes(ptr noundef %14, ptr noundef %10, i32 noundef 4, ptr noundef %15, ptr noundef %16)
  br i1 %17, label %19, label %18

18:                                               ; preds = %4
  store i1 false, ptr %5, align 1
  store i32 1, ptr %13, align 4
  br label %104

19:                                               ; preds = %4
  %20 = getelementptr inbounds nuw %struct.snoop_atm_hdr, ptr %10, i32 0, i32 1
  %21 = load i8, ptr %20, align 1
  store i8 %21, ptr %11, align 1
  %22 = getelementptr inbounds nuw %struct.snoop_atm_hdr, ptr %10, i32 0, i32 2
  %23 = call zeroext i16 @pntoh16(ptr noundef %22)
  store i16 %23, ptr %12, align 2
  %24 = getelementptr inbounds nuw %struct.snoop_atm_hdr, ptr %10, i32 0, i32 0
  %25 = load i8, ptr %24, align 2
  %26 = zext i8 %25 to i32
  %27 = and i32 %26, 15
  switch i32 %27, label %58 [
    i32 1, label %28
    i32 2, label %33
    i32 5, label %38
    i32 6, label %43
    i32 3, label %48
    i32 4, label %53
  ]

28:                                               ; preds = %19
  %29 = load ptr, ptr %7, align 8
  %30 = getelementptr inbounds nuw %struct.atm_phdr, ptr %29, i32 0, i32 1
  store i8 4, ptr %30, align 4
  %31 = load ptr, ptr %7, align 8
  %32 = getelementptr inbounds nuw %struct.atm_phdr, ptr %31, i32 0, i32 2
  store i8 3, ptr %32, align 1
  br label %75

33:                                               ; preds = %19
  %34 = load ptr, ptr %7, align 8
  %35 = getelementptr inbounds nuw %struct.atm_phdr, ptr %34, i32 0, i32 1
  store i8 4, ptr %35, align 4
  %36 = load ptr, ptr %7, align 8
  %37 = getelementptr inbounds nuw %struct.atm_phdr, ptr %36, i32 0, i32 2
  store i8 1, ptr %37, align 1
  br label %75

38:                                               ; preds = %19
  %39 = load ptr, ptr %7, align 8
  %40 = getelementptr inbounds nuw %struct.atm_phdr, ptr %39, i32 0, i32 1
  store i8 4, ptr %40, align 4
  %41 = load ptr, ptr %7, align 8
  %42 = getelementptr inbounds nuw %struct.atm_phdr, ptr %41, i32 0, i32 2
  store i8 4, ptr %42, align 1
  br label %75

43:                                               ; preds = %19
  %44 = load ptr, ptr %7, align 8
  %45 = getelementptr inbounds nuw %struct.atm_phdr, ptr %44, i32 0, i32 1
  store i8 6, ptr %45, align 4
  %46 = load ptr, ptr %7, align 8
  %47 = getelementptr inbounds nuw %struct.atm_phdr, ptr %46, i32 0, i32 2
  store i8 0, ptr %47, align 1
  br label %75

48:                                               ; preds = %19
  %49 = load ptr, ptr %7, align 8
  %50 = getelementptr inbounds nuw %struct.atm_phdr, ptr %49, i32 0, i32 1
  store i8 4, ptr %50, align 4
  %51 = load ptr, ptr %7, align 8
  %52 = getelementptr inbounds nuw %struct.atm_phdr, ptr %51, i32 0, i32 2
  store i8 0, ptr %52, align 1
  br label %75

53:                                               ; preds = %19
  %54 = load ptr, ptr %7, align 8
  %55 = getelementptr inbounds nuw %struct.atm_phdr, ptr %54, i32 0, i32 1
  store i8 4, ptr %55, align 4
  %56 = load ptr, ptr %7, align 8
  %57 = getelementptr inbounds nuw %struct.atm_phdr, ptr %56, i32 0, i32 2
  store i8 0, ptr %57, align 1
  br label %75

58:                                               ; preds = %19
  %59 = load i8, ptr %11, align 1
  %60 = zext i8 %59 to i32
  %61 = icmp eq i32 %60, 0
  br i1 %61, label %62, label %69

62:                                               ; preds = %58
  %63 = load i16, ptr %12, align 2
  %64 = zext i16 %63 to i32
  %65 = icmp eq i32 %64, 5
  br i1 %65, label %66, label %69

66:                                               ; preds = %62
  %67 = load ptr, ptr %7, align 8
  %68 = getelementptr inbounds nuw %struct.atm_phdr, ptr %67, i32 0, i32 1
  store i8 6, ptr %68, align 4
  br label %72

69:                                               ; preds = %62, %58
  %70 = load ptr, ptr %7, align 8
  %71 = getelementptr inbounds nuw %struct.atm_phdr, ptr %70, i32 0, i32 1
  store i8 4, ptr %71, align 4
  br label %72

72:                                               ; preds = %69, %66
  %73 = load ptr, ptr %7, align 8
  %74 = getelementptr inbounds nuw %struct.atm_phdr, ptr %73, i32 0, i32 2
  store i8 0, ptr %74, align 1
  br label %75

75:                                               ; preds = %72, %53, %48, %43, %38, %33, %28
  %76 = load ptr, ptr %7, align 8
  %77 = getelementptr inbounds nuw %struct.atm_phdr, ptr %76, i32 0, i32 3
  store i8 0, ptr %77, align 2
  %78 = load i8, ptr %11, align 1
  %79 = zext i8 %78 to i16
  %80 = load ptr, ptr %7, align 8
  %81 = getelementptr inbounds nuw %struct.atm_phdr, ptr %80, i32 0, i32 4
  store i16 %79, ptr %81, align 8
  %82 = load i16, ptr %12, align 2
  %83 = load ptr, ptr %7, align 8
  %84 = getelementptr inbounds nuw %struct.atm_phdr, ptr %83, i32 0, i32 5
  store i16 %82, ptr %84, align 2
  %85 = getelementptr inbounds nuw %struct.snoop_atm_hdr, ptr %10, i32 0, i32 0
  %86 = load i8, ptr %85, align 2
  %87 = zext i8 %86 to i32
  %88 = and i32 %87, 128
  %89 = icmp ne i32 %88, 0
  %90 = select i1 %89, i32 0, i32 1
  %91 = trunc i32 %90 to i16
  %92 = load ptr, ptr %7, align 8
  %93 = getelementptr inbounds nuw %struct.atm_phdr, ptr %92, i32 0, i32 7
  store i16 %91, ptr %93, align 2
  %94 = load ptr, ptr %7, align 8
  %95 = getelementptr inbounds nuw %struct.atm_phdr, ptr %94, i32 0, i32 0
  store i32 0, ptr %95, align 8
  %96 = load ptr, ptr %7, align 8
  %97 = getelementptr inbounds nuw %struct.atm_phdr, ptr %96, i32 0, i32 8
  store i16 0, ptr %97, align 8
  %98 = load ptr, ptr %7, align 8
  %99 = getelementptr inbounds nuw %struct.atm_phdr, ptr %98, i32 0, i32 9
  store i16 0, ptr %99, align 2
  %100 = load ptr, ptr %7, align 8
  %101 = getelementptr inbounds nuw %struct.atm_phdr, ptr %100, i32 0, i32 10
  store i16 0, ptr %101, align 4
  %102 = load ptr, ptr %7, align 8
  %103 = getelementptr inbounds nuw %struct.atm_phdr, ptr %102, i32 0, i32 11
  store i32 0, ptr %103, align 8
  store i1 true, ptr %5, align 1
  store i32 1, ptr %13, align 4
  br label %104

104:                                              ; preds = %75, %18
  call void @llvm.lifetime.end.p0(i64 2, ptr %12) #12
  call void @llvm.lifetime.end.p0(i64 1, ptr %11) #12
  call void @llvm.lifetime.end.p0(i64 4, ptr %10) #12
  %105 = load i1, ptr %5, align 1
  ret i1 %105
}