; Function Attrs: null_pointer_is_valid sspstrong uwtable
define internal fastcc noundef zeroext i1 @snoop_read_atm_pseudoheader(ptr noundef %0, ptr noundef writeonly captures(none) %1, ptr noundef %2, ptr noundef %3) unnamed_addr #0 {
  %5 = alloca %struct.snoop_atm_hdr, align 2
  call void @llvm.lifetime.start.p0(i64 4, ptr nonnull %5) #8
  %6 = call zeroext i1 @wtap_read_bytes(ptr noundef %0, ptr noundef nonnull %5, i32 noundef 4, ptr noundef %2, ptr noundef %3)
  br i1 %6, label %7, label %37

7:                                                ; preds = %4
  %8 = getelementptr inbounds nuw i8, ptr %5, i64 1
  %9 = load i8, ptr %8, align 1
  %10 = getelementptr inbounds nuw i8, ptr %5, i64 2
  %.val = load i8, ptr %10, align 2
  %11 = getelementptr inbounds nuw i8, ptr %5, i64 3
  %.val33 = load i8, ptr %11, align 1
  %12 = zext i8 %.val to i16
  %13 = shl nuw i16 %12, 8
  %14 = zext i8 %.val33 to i16
  %15 = or disjoint i16 %13, %14
  %16 = load i8, ptr %5, align 2
  %17 = and i8 %16, 15
  %switch.tableidx = add nsw i8 %17, -1
  %18 = icmp ult i8 %switch.tableidx, 6
  br i1 %18, label %switch.lookup, label %19

19:                                               ; preds = %7
  %20 = icmp eq i8 %9, 0
  %21 = icmp eq i16 %15, 5
  %or.cond = select i1 %20, i1 %21, i1 false
  %spec.select = select i1 %or.cond, i8 6, i8 4
  br label %24

switch.lookup:                                    ; preds = %7
  %22 = shl nuw nsw i8 %switch.tableidx, 3
  %switch.shiftamt = zext nneg i8 %22 to i48
  %switch.downshift = lshr i48 6614317007876, %switch.shiftamt
  %switch.masked = trunc i48 %switch.downshift to i8
  %23 = shl nuw nsw i8 %switch.tableidx, 3
  %switch.shiftamt37 = zext nneg i8 %23 to i48
  %switch.downshift38 = lshr i48 17179869443, %switch.shiftamt37
  %switch.masked39 = trunc i48 %switch.downshift38 to i8
  br label %24

24:                                               ; preds = %switch.lookup, %19
  %spec.select.sink = phi i8 [ %spec.select, %19 ], [ %switch.masked, %switch.lookup ]
  %.sink = phi i8 [ 0, %19 ], [ %switch.masked39, %switch.lookup ]
  %25 = getelementptr inbounds nuw i8, ptr %1, i64 4
  store i8 %spec.select.sink, ptr %25, align 4
  %26 = getelementptr inbounds nuw i8, ptr %1, i64 5
  store i8 %.sink, ptr %26, align 1
  %27 = getelementptr inbounds nuw i8, ptr %1, i64 6
  store i8 0, ptr %27, align 2
  %28 = zext i8 %9 to i16
  %29 = getelementptr inbounds nuw i8, ptr %1, i64 8
  store i16 %28, ptr %29, align 8
  %30 = getelementptr inbounds nuw i8, ptr %1, i64 10
  store i16 %15, ptr %30, align 2
  %.not = icmp sgt i8 %16, -1
  %31 = zext i1 %.not to i16
  %32 = getelementptr inbounds nuw i8, ptr %1, i64 14
  store i16 %31, ptr %32, align 2
  store i32 0, ptr %1, align 8
  %33 = getelementptr inbounds nuw i8, ptr %1, i64 16
  store i16 0, ptr %33, align 8
  %34 = getelementptr inbounds nuw i8, ptr %1, i64 18
  store i16 0, ptr %34, align 2
  %35 = getelementptr inbounds nuw i8, ptr %1, i64 20
  store i16 0, ptr %35, align 4
  %36 = getelementptr inbounds nuw i8, ptr %1, i64 24
  store i32 0, ptr %36, align 8
  br label %37

37:                                               ; preds = %4, %24
  call void @llvm.lifetime.end.p0(i64 4, ptr nonnull %5) #8
  ret i1 %6
}